; Function Attrs: mustprogress nofree norecurse nosync nounwind willreturn memory(argmem: readwrite) uwtable
define void @_ZN5arrowcoERKNS_15BasicDecimal256E(ptr dead_on_unwind noalias writable writeonly sret(%"class.arrow::BasicDecimal256") align 8 captures(none) initializes((0, 32)) %0, ptr noundef nonnull readonly align 8 captures(none) dereferenceable(32) %1) local_unnamed_addr #5 {
  %3 = load i64, ptr %1, align 8, !tbaa !7
  %4 = xor i64 %3, -1
  %5 = getelementptr inbounds nuw i8, ptr %1, i64 8
  %6 = load i64, ptr %5, align 8, !tbaa !7
  %7 = xor i64 %6, -1
  %8 = getelementptr inbounds nuw i8, ptr %1, i64 16
  %9 = load i64, ptr %8, align 8, !tbaa !7
  %10 = xor i64 %9, -1
  %11 = getelementptr inbounds nuw i8, ptr %1, i64 24
  %12 = load i64, ptr %11, align 8, !tbaa !7
  %13 = xor i64 %12, -1
  store i64 %4, ptr %0, align 8
  %.sroa.4.0..sroa_idx = getelementptr inbounds nuw i8, ptr %0, i64 8
  store i64 %7, ptr %.sroa.4.0..sroa_idx, align 8
  %.sroa.5.0..sroa_idx = getelementptr inbounds nuw i8, ptr %0, i64 16
  store i64 %10, ptr %.sroa.5.0..sroa_idx, align 8
  %.sroa.6.0..sroa_idx = getelementptr inbounds nuw i8, ptr %0, i64 24
  store i64 %13, ptr %.sroa.6.0..sroa_idx, align 8, !tbaa !4
  ret void
}